target datalayout = "e-m:e-p270:32:32-p271:32:32-p272:64:64-i64:64-i128:128-f80:128-n8:16:32:64-S128"
target triple = "x86_64-pc-linux-gnu"

%struct.H5VL_datatype_get_args_t = type { i32, %union.anon.6 }
%union.anon.6 = type { %struct.anon.8 }
%struct.anon.8 = type { ptr, i64 }
%struct.anon.7 = type { ptr }
%struct.anon.9 = type { i64 }

@.str = private unnamed_addr constant [113 x i8] c"generated/home/dtcxzyw/WorkSpace/Projects/compilers/llvm-opt-benchmark/bench/hdf5/hdf5/src/H5VLnative_datatype.c\00", align 1
@H5E_DATATYPE_g = external global i64, align 8
@__func__.H5VL__native_datatype_get = private unnamed_addr constant [26 x i8] c"H5VL__native_datatype_get\00", align 1
@H5E_CANTGET_g = external global i64, align 8
@.str.9 = private unnamed_addr constant [46 x i8] c"can't determine serialized length of datatype\00", align 1
@H5E_CANTSERIALIZE_g = external global i64, align 8
@.str.10 = private unnamed_addr constant [25 x i8] c"can't serialize datatype\00", align 1
@.str.11 = private unnamed_addr constant [31 x i8] c"can't get object creation info\00", align 1
@H5E_VOL_g = external global i64, align 8
@.str.12 = private unnamed_addr constant [49 x i8] c"can't get this type of information from datatype\00", align 1

; Function Attrs: nounwind uwtable
define i32 @H5VL__native_datatype_get(ptr noundef %0, ptr noundef %1, i64 noundef %2, ptr noundef %3) #0 {
  %5 = alloca ptr, align 8
  %6 = alloca ptr, align 8
  %7 = alloca i64, align 8
  %8 = alloca ptr, align 8
  %9 = alloca ptr, align 8
  %10 = alloca i32, align 4
  %11 = alloca i8, align 1
  store ptr %0, ptr %5, align 8
  store ptr %1, ptr %6, align 8
  store i64 %2, ptr %7, align 8
  store ptr %3, ptr %8, align 8
  %12 = load ptr, ptr %5, align 8
  store ptr %12, ptr %9, align 8
  store i32 0, ptr %10, align 4
  store i8 0, ptr %11, align 1
  %13 = load ptr, ptr %6, align 8
  %14 = getelementptr inbounds %struct.H5VL_datatype_get_args_t, ptr %13, i32 0, i32 0
  %15 = load i32, ptr %14, align 8
  switch i32 %15, label %90 [
    i32 0, label %16
    i32 1, label %40
    i32 2, label %67
  ]

16:                                               ; preds = %4
  %17 = load ptr, ptr %9, align 8
  %18 = load ptr, ptr %6, align 8
  %19 = getelementptr inbounds %struct.H5VL_datatype_get_args_t, ptr %18, i32 0, i32 1
  %20 = getelementptr inbounds %struct.anon.7, ptr %19, i32 0, i32 0
  %21 = load ptr, ptr %20, align 8
  %22 = call i32 @H5T_encode(ptr noundef %17, ptr noundef null, ptr noundef %21)
  %23 = icmp slt i32 %22, 0
  br i1 %23, label %24, label %39

24:                                               ; preds = %16
  br label %25

25:                                               ; preds = %24
  br label %26

26:                                               ; preds = %25
  br label %27

27:                                               ; preds = %26
  %28 = load i64, ptr @H5E_DATATYPE_g, align 8
  %29 = load i64, ptr @H5E_CANTGET_g, align 8
  %30 = call i32 (ptr, ptr, i32, i64, i64, ptr, ...) @H5E_printf_stack(ptr noundef @.str, ptr noundef @__func__.H5VL__native_datatype_get, i32 noundef 189, i64 noundef %28, i64 noundef %29, ptr noundef @.str.9)
  br label %31

31:                                               ; preds = %27
  store i8 1, ptr %11, align 1
  %32 = load i8, ptr %11, align 1
  %33 = trunc i8 %32 to i1
  %34 = zext i1 %33 to i8
  store i8 %34, ptr %11, align 1
  br label %35

35:                                               ; preds = %31
  br label %36

36:                                               ; preds = %35
  store i32 -1, ptr %10, align 4
  br label %106

37:                                               ; No predecessors!
  br label %38

38:                                               ; preds = %37
  br label %39

39:                                               ; preds = %38, %16
  br label %105

40:                                               ; preds = %4
  %41 = load ptr, ptr %9, align 8
  %42 = load ptr, ptr %6, align 8
  %43 = getelementptr inbounds %struct.H5VL_datatype_get_args_t, ptr %42, i32 0, i32 1
  %44 = getelementptr inbounds %struct.anon.8, ptr %43, i32 0, i32 0
  %45 = load ptr, ptr %44, align 8
  %46 = load ptr, ptr %6, align 8
  %47 = getelementptr inbounds %struct.H5VL_datatype_get_args_t, ptr %46, i32 0, i32 1
  %48 = getelementptr inbounds %struct.anon.8, ptr %47, i32 0, i32 1
  %49 = call i32 @H5T_encode(ptr noundef %41, ptr noundef %45, ptr noundef %48)
  %50 = icmp slt i32 %49, 0
  br i1 %50, label %51, label %66

51:                                               ; preds = %40
  br label %52

52:                                               ; preds = %51
  br label %53

53:                                               ; preds = %52
  br label %54

54:                                               ; preds = %53
  %55 = load i64, ptr @H5E_DATATYPE_g, align 8
  %56 = load i64, ptr @H5E_CANTSERIALIZE_g, align 8
  %57 = call i32 (ptr, ptr, i32, i64, i64, ptr, ...) @H5E_printf_stack(ptr noundef @.str, ptr noundef @__func__.H5VL__native_datatype_get, i32 noundef 197, i64 noundef %55, i64 noundef %56, ptr noundef @.str.10)
  br label %58

58:                                               ; preds = %54
  store i8 1, ptr %11, align 1
  %59 = load i8, ptr %11, align 1
  %60 = trunc i8 %59 to i1
  %61 = zext i1 %60 to i8
  store i8 %61, ptr %11, align 1
  br label %62

62:                                               ; preds = %58
  br label %63

63:                                               ; preds = %62
  store i32 -1, ptr %10, align 4
  br label %106

64:                                               ; No predecessors!
  br label %65

65:                                               ; preds = %64
  br label %66

66:                                               ; preds = %65, %40
  br label %105

67:                                               ; preds = %4
  %68 = load ptr, ptr %9, align 8
  %69 = call i64 @H5T__get_create_plist(ptr noundef %68)
  %70 = load ptr, ptr %6, align 8
  %71 = getelementptr inbounds %struct.H5VL_datatype_get_args_t, ptr %70, i32 0, i32 1
  %72 = getelementptr inbounds %struct.anon.9, ptr %71, i32 0, i32 0
  store i64 %69, ptr %72, align 8
  %73 = icmp eq i64 -1, %69
  br i1 %73, label %74, label %89

74:                                               ; preds = %67
  br label %75

75:                                               ; preds = %74
  br label %76

76:                                               ; preds = %75
  br label %77

77:                                               ; preds = %76
  %78 = load i64, ptr @H5E_DATATYPE_g, align 8
  %79 = load i64, ptr @H5E_CANTGET_g, align 8
  %80 = call i32 (ptr, ptr, i32, i64, i64, ptr, ...) @H5E_printf_stack(ptr noundef @.str, ptr noundef @__func__.H5VL__native_datatype_get, i32 noundef 205, i64 noundef %78, i64 noundef %79, ptr noundef @.str.11)
  br label %81

81:                                               ; preds = %77
  store i8 1, ptr %11, align 1
  %82 = load i8, ptr %11, align 1
  %83 = trunc i8 %82 to i1
  %84 = zext i1 %83 to i8
  store i8 %84, ptr %11, align 1
  br label %85

85:                                               ; preds = %81
  br label %86

86:                                               ; preds = %85
  store i32 -1, ptr %10, align 4
  br label %106

87:                                               ; No predecessors!
  br label %88

88:                                               ; preds = %87
  br label %89

89:                                               ; preds = %88, %67
  br label %105

90:                                               ; preds = %4
  br label %91

91:                                               ; preds = %90
  br label %92

92:                                               ; preds = %91
  br label %93

93:                                               ; preds = %92
  %94 = load i64, ptr @H5E_VOL_g, align 8
  %95 = load i64, ptr @H5E_CANTGET_g, align 8
  %96 = call i32 (ptr, ptr, i32, i64, i64, ptr, ...) @H5E_printf_stack(ptr noundef @.str, ptr noundef @__func__.H5VL__native_datatype_get, i32 noundef 211, i64 noundef %94, i64 noundef %95, ptr noundef @.str.12)
  br label %97

97:                                               ; preds = %93
  store i8 1, ptr %11, align 1
  %98 = load i8, ptr %11, align 1
  %99 = trunc i8 %98 to i1
  %100 = zext i1 %99 to i8
  store i8 %100, ptr %11, align 1
  br label %101

101:                                              ; preds = %97
  br label %102

102:                                              ; preds = %101
  store i32 -1, ptr %10, align 4
  br label %106

103:                                              ; No predecessors!
  br label %104

104:                                              ; preds = %103
  br label %105

105:                                              ; preds = %104, %89, %66, %39
  br label %106

106:                                              ; preds = %105, %102, %86, %63, %36
  %107 = load i32, ptr %10, align 4
  ret i32 %107
}