; Function Attrs: nounwind uwtable
define range(i32 -1, 1) i32 @H5VL__native_datatype_get(ptr noundef %0, ptr noundef %1, i64 noundef %2, ptr nocapture noundef readnone %3) local_unnamed_addr #0 {
  %5 = load i32, ptr %1, align 8
  switch i32 %5, label %33 [
    i32 0, label %6
    i32 1, label %15
    i32 2, label %25
  ]

6:                                                ; preds = %4
  %7 = getelementptr inbounds i8, ptr %1, i64 8
  %8 = load ptr, ptr %7, align 8
  %9 = tail call i32 @H5T_encode(ptr noundef %0, ptr noundef null, ptr noundef %8) #2
  %10 = icmp slt i32 %9, 0
  br i1 %10, label %11, label %37

11:                                               ; preds = %6
  %12 = load i64, ptr @H5E_DATATYPE_g, align 8
  %13 = load i64, ptr @H5E_CANTGET_g, align 8
  %14 = tail call i32 (ptr, ptr, i32, i64, i64, ptr, ...) @H5E_printf_stack(ptr noundef nonnull @.str, ptr noundef nonnull @__func__.H5VL__native_datatype_get, i32 noundef 189, i64 noundef %12, i64 noundef %13, ptr noundef nonnull @.str.9) #2
  br label %37

15:                                               ; preds = %4
  %16 = getelementptr inbounds i8, ptr %1, i64 8
  %17 = load ptr, ptr %16, align 8
  %18 = getelementptr inbounds i8, ptr %1, i64 16
  %19 = tail call i32 @H5T_encode(ptr noundef %0, ptr noundef %17, ptr noundef nonnull %18) #2
  %20 = icmp slt i32 %19, 0
  br i1 %20, label %21, label %37

21:                                               ; preds = %15
  %22 = load i64, ptr @H5E_DATATYPE_g, align 8
  %23 = load i64, ptr @H5E_CANTSERIALIZE_g, align 8
  %24 = tail call i32 (ptr, ptr, i32, i64, i64, ptr, ...) @H5E_printf_stack(ptr noundef nonnull @.str, ptr noundef nonnull @__func__.H5VL__native_datatype_get, i32 noundef 197, i64 noundef %22, i64 noundef %23, ptr noundef nonnull @.str.10) #2
  br label %37

25:                                               ; preds = %4
  %26 = tail call i64 @H5T__get_create_plist(ptr noundef %0) #2
  %27 = getelementptr inbounds i8, ptr %1, i64 8
  store i64 %26, ptr %27, align 8
  %28 = icmp eq i64 %26, -1
  br i1 %28, label %29, label %37

29:                                               ; preds = %25
  %30 = load i64, ptr @H5E_DATATYPE_g, align 8
  %31 = load i64, ptr @H5E_CANTGET_g, align 8
  %32 = tail call i32 (ptr, ptr, i32, i64, i64, ptr, ...) @H5E_printf_stack(ptr noundef nonnull @.str, ptr noundef nonnull @__func__.H5VL__native_datatype_get, i32 noundef 205, i64 noundef %30, i64 noundef %31, ptr noundef nonnull @.str.11) #2
  br label %37

33:                                               ; preds = %4
  %34 = load i64, ptr @H5E_VOL_g, align 8
  %35 = load i64, ptr @H5E_CANTGET_g, align 8
  %36 = tail call i32 (ptr, ptr, i32, i64, i64, ptr, ...) @H5E_printf_stack(ptr noundef nonnull @.str, ptr noundef nonnull @__func__.H5VL__native_datatype_get, i32 noundef 211, i64 noundef %34, i64 noundef %35, ptr noundef nonnull @.str.12) #2
  br label %37

37:                                               ; preds = %6, %15, %25, %33, %29, %21, %11
  %.0 = phi i32 [ -1, %33 ], [ -1, %29 ], [ 0, %25 ], [ -1, %21 ], [ 0, %15 ], [ -1, %11 ], [ 0, %6 ]
  ret i32 %.0
}